; Function Attrs: nounwind uwtable
define internal ptr @with_tp_del(ptr readnone captures(none) %0, ptr noundef %1) #0 {
  %3 = alloca ptr, align 8
  call void @llvm.lifetime.start.p0(i64 8, ptr nonnull %3) #8
  %4 = call i32 (ptr, ptr, ...) @PyArg_ParseTuple(ptr noundef %1, ptr noundef nonnull @.str.21, ptr noundef nonnull %3) #8
  %.not = icmp eq i32 %4, 0
  br i1 %.not, label %_Py_NewRef.exit, label %5

5:                                                ; preds = %2
  %6 = load ptr, ptr %3, align 8, !tbaa !6
  %7 = getelementptr i8, ptr %6, i64 8
  %.val6 = load ptr, ptr %7, align 8, !tbaa !14
  %8 = getelementptr i8, ptr %.val6, i64 168
  %.val6.val = load i64, ptr %8, align 8, !tbaa !17
  %9 = and i64 %.val6.val, 2147483648
  %.not7 = icmp eq i64 %9, 0
  br i1 %.not7, label %13, label %10

10:                                               ; preds = %5
  %11 = getelementptr i8, ptr %6, i64 168
  %.val = load i64, ptr %11, align 8, !tbaa !17
  %12 = and i64 %.val, 512
  %.not5 = icmp eq i64 %12, 0
  br i1 %.not5, label %13, label %16

13:                                               ; preds = %10, %5
  %14 = load ptr, ptr @PyExc_TypeError, align 8, !tbaa !6
  %15 = call ptr (ptr, ptr, ...) @PyErr_Format(ptr noundef %14, ptr noundef nonnull @.str.18, ptr noundef nonnull %6) #8
  br label %_Py_NewRef.exit

16:                                               ; preds = %10
  %17 = getelementptr inbounds nuw i8, ptr %6, i64 376
  store ptr @slot_tp_del, ptr %17, align 8, !tbaa !27
  %18 = load i32, ptr %6, align 8, !tbaa !3
  %19 = icmp slt i32 %18, 0
  br i1 %19, label %_Py_NewRef.exit, label %20

20:                                               ; preds = %16
  %21 = add nuw i32 %18, 1
  store i32 %21, ptr %6, align 8, !tbaa !3
  br label %_Py_NewRef.exit

_Py_NewRef.exit:                                  ; preds = %20, %16, %2, %13
  %.0 = phi ptr [ null, %13 ], [ null, %2 ], [ %6, %16 ], [ %6, %20 ]
  call void @llvm.lifetime.end.p0(i64 8, ptr nonnull %3) #8
  ret ptr %.0
}